target datalayout = "e-m:e-p270:32:32-p271:32:32-p272:64:64-i64:64-i128:128-f80:128-n8:16:32:64-S128"
target triple = "x86_64-unknown-linux-gnu"

%"class.icu_75::TransliterationRule" = type { ptr, ptr, ptr, ptr, ptr, %"class.icu_75::UnicodeString", ptr, i32, i32, i32, i8, ptr }
%"class.icu_75::UnicodeString" = type { %"class.icu_75::Replaceable", %"union.icu_75::UnicodeString::StackBufferOrFields" }
%"class.icu_75::Replaceable" = type { %"class.icu_75::UObject" }
%"class.icu_75::UObject" = type { ptr }
%"union.icu_75::UnicodeString::StackBufferOrFields" = type { %struct.anon.0, [32 x i8] }
%struct.anon.0 = type { i16, i32, i32, ptr }

; Function Attrs: mustprogress nounwind uwtable
define void @_ZN6icu_7519TransliterationRuleD2Ev(ptr noundef nonnull align 8 dereferenceable(136) %this) unnamed_addr #0 align 2 personality ptr @__gxx_personality_v0 {
entry:
  %this.addr = alloca ptr, align 8
  store ptr %this, ptr %this.addr, align 8
  %this1 = load ptr, ptr %this.addr, align 8
  store ptr getelementptr inbounds ({ [7 x ptr] }, ptr @_ZTVN6icu_7519TransliterationRuleE, i32 0, i32 0, i32 2), ptr %this1, align 8
  %segments = getelementptr inbounds %"class.icu_75::TransliterationRule", ptr %this1, i32 0, i32 6
  %0 = load ptr, ptr %segments, align 8
  invoke void @uprv_free_75(ptr noundef %0)
          to label %invoke.cont unwind label %terminate.lpad

invoke.cont:                                      ; preds = %entry
  %anteContext = getelementptr inbounds %"class.icu_75::TransliterationRule", ptr %this1, i32 0, i32 1
  %1 = load ptr, ptr %anteContext, align 8
  %isnull = icmp eq ptr %1, null
  br i1 %isnull, label %delete.end, label %delete.notnull

delete.notnull:                                   ; preds = %invoke.cont
  %vtable = load ptr, ptr %1, align 8
  %vfn = getelementptr inbounds ptr, ptr %vtable, i64 1
  %2 = load ptr, ptr %vfn, align 8
  call void %2(ptr noundef nonnull align 8 dereferenceable(108) %1) #7
  br label %delete.end

delete.end:                                       ; preds = %delete.notnull, %invoke.cont
  %key = getelementptr inbounds %"class.icu_75::TransliterationRule", ptr %this1, i32 0, i32 2
  %3 = load ptr, ptr %key, align 8
  %isnull2 = icmp eq ptr %3, null
  br i1 %isnull2, label %delete.end6, label %delete.notnull3

delete.notnull3:                                  ; preds = %delete.end
  %vtable4 = load ptr, ptr %3, align 8
  %vfn5 = getelementptr inbounds ptr, ptr %vtable4, i64 1
  %4 = load ptr, ptr %vfn5, align 8
  call void %4(ptr noundef nonnull align 8 dereferenceable(108) %3) #7
  br label %delete.end6

delete.end6:                                      ; preds = %delete.notnull3, %delete.end
  %postContext = getelementptr inbounds %"class.icu_75::TransliterationRule", ptr %this1, i32 0, i32 3
  %5 = load ptr, ptr %postContext, align 8
  %isnull7 = icmp eq ptr %5, null
  br i1 %isnull7, label %delete.end11, label %delete.notnull8

delete.notnull8:                                  ; preds = %delete.end6
  %vtable9 = load ptr, ptr %5, align 8
  %vfn10 = getelementptr inbounds ptr, ptr %vtable9, i64 1
  %6 = load ptr, ptr %vfn10, align 8
  call void %6(ptr noundef nonnull align 8 dereferenceable(108) %5) #7
  br label %delete.end11

delete.end11:                                     ; preds = %delete.notnull8, %delete.end6
  %output = getelementptr inbounds %"class.icu_75::TransliterationRule", ptr %this1, i32 0, i32 4
  %7 = load ptr, ptr %output, align 8
  %isnull12 = icmp eq ptr %7, null
  br i1 %isnull12, label %delete.end16, label %delete.notnull13

delete.notnull13:                                 ; preds = %delete.end11
  %vtable14 = load ptr, ptr %7, align 8
  %vfn15 = getelementptr inbounds ptr, ptr %vtable14, i64 1
  %8 = load ptr, ptr %vfn15, align 8
  call void %8(ptr noundef nonnull align 8 dereferenceable(8) %7) #7
  br label %delete.end16

delete.end16:                                     ; preds = %delete.notnull13, %delete.end11
  %pattern = getelementptr inbounds %"class.icu_75::TransliterationRule", ptr %this1, i32 0, i32 5
  call void @_ZN6icu_7513UnicodeStringD1Ev(ptr noundef nonnull align 8 dereferenceable(64) %pattern) #7
  ret void

terminate.lpad:                                   ; preds = %entry
  %9 = landingpad { ptr, i32 }
          catch ptr null
  %10 = extractvalue { ptr, i32 } %9, 0
  call void @__clang_call_terminate(ptr %10) #9
  unreachable
}