; Function Attrs: mustprogress nounwind uwtable
define void @_ZN6icu_7519TransliterationRuleD2Ev(ptr noundef nonnull align 8 dereferenceable(136) %this) unnamed_addr #0 align 2 personality ptr @__gxx_personality_v0 {
entry:
  store ptr getelementptr inbounds ({ [7 x ptr] }, ptr @_ZTVN6icu_7519TransliterationRuleE, i64 0, i32 0, i64 2), ptr %this, align 8
  %segments = getelementptr inbounds i8, ptr %this, i64 104
  %0 = load ptr, ptr %segments, align 8
  invoke void @uprv_free_75(ptr noundef %0)
          to label %invoke.cont unwind label %terminate.lpad

invoke.cont:                                      ; preds = %entry
  %anteContext = getelementptr inbounds i8, ptr %this, i64 8
  %1 = load ptr, ptr %anteContext, align 8
  %isnull = icmp eq ptr %1, null
  br i1 %isnull, label %delete.end, label %delete.notnull

delete.notnull:                                   ; preds = %invoke.cont
  %vtable = load ptr, ptr %1, align 8
  %vfn = getelementptr inbounds i8, ptr %vtable, i64 8
  %2 = load ptr, ptr %vfn, align 8
  tail call void %2(ptr noundef nonnull align 8 dereferenceable(108) %1) #11
  br label %delete.end

delete.end:                                       ; preds = %delete.notnull, %invoke.cont
  %key = getelementptr inbounds i8, ptr %this, i64 16
  %3 = load ptr, ptr %key, align 8
  %isnull2 = icmp eq ptr %3, null
  br i1 %isnull2, label %delete.end6, label %delete.notnull3

delete.notnull3:                                  ; preds = %delete.end
  %vtable4 = load ptr, ptr %3, align 8
  %vfn5 = getelementptr inbounds i8, ptr %vtable4, i64 8
  %4 = load ptr, ptr %vfn5, align 8
  tail call void %4(ptr noundef nonnull align 8 dereferenceable(108) %3) #11
  br label %delete.end6

delete.end6:                                      ; preds = %delete.notnull3, %delete.end
  %postContext = getelementptr inbounds i8, ptr %this, i64 24
  %5 = load ptr, ptr %postContext, align 8
  %isnull7 = icmp eq ptr %5, null
  br i1 %isnull7, label %delete.end11, label %delete.notnull8

delete.notnull8:                                  ; preds = %delete.end6
  %vtable9 = load ptr, ptr %5, align 8
  %vfn10 = getelementptr inbounds i8, ptr %vtable9, i64 8
  %6 = load ptr, ptr %vfn10, align 8
  tail call void %6(ptr noundef nonnull align 8 dereferenceable(108) %5) #11
  br label %delete.end11

delete.end11:                                     ; preds = %delete.notnull8, %delete.end6
  %output = getelementptr inbounds i8, ptr %this, i64 32
  %7 = load ptr, ptr %output, align 8
  %isnull12 = icmp eq ptr %7, null
  br i1 %isnull12, label %delete.end16, label %delete.notnull13

delete.notnull13:                                 ; preds = %delete.end11
  %vtable14 = load ptr, ptr %7, align 8
  %vfn15 = getelementptr inbounds i8, ptr %vtable14, i64 8
  %8 = load ptr, ptr %vfn15, align 8
  tail call void %8(ptr noundef nonnull align 8 dereferenceable(8) %7) #11
  br label %delete.end16

delete.end16:                                     ; preds = %delete.notnull13, %delete.end11
  %pattern = getelementptr inbounds i8, ptr %this, i64 40
  tail call void @_ZN6icu_7513UnicodeStringD1Ev(ptr noundef nonnull align 8 dereferenceable(64) %pattern) #11
  ret void

terminate.lpad:                                   ; preds = %entry
  %9 = landingpad { ptr, i32 }
          catch ptr null
  %10 = extractvalue { ptr, i32 } %9, 0
  tail call void @__clang_call_terminate(ptr %10) #13
  unreachable
}